target datalayout = "e-m:e-p270:32:32-p271:32:32-p272:64:64-i64:64-i128:128-f80:128-n8:16:32:64-S128"
target triple = "x86_64-pc-linux-gnu"

%class.Block_Array = type { i32, ptr, ptr }
%class.Block = type { %class.CFGElement, %class.Node_List, %class.Block_Array, i32, i32, i32, ptr, ptr, i32, i32, i32, i32, i32, i32, i32, i32, i8, i32 }
%class.CFGElement = type { ptr, double }
%class.Node_List = type <{ %class.Node_Array, i32, [4 x i8] }>
%class.Node_Array = type { ptr, i32, ptr }

@CodeEntryAlignment = external global i64, align 8
@InteriorEntryAlignment = external global i64, align 8

; Function Attrs: mustprogress nounwind uwtable
define linkonce_odr hidden noundef i32 @_ZN9relocInfo9addr_unitEv() #1 comdat align 2 {
  ret i32 1
}

; Function Attrs: mustprogress nounwind uwtable
define linkonce_odr hidden noundef i32 @_ZNK5Block14loop_alignmentEv(ptr noundef nonnull align 8 dereferenceable(144) %0) #1 comdat align 2 {
  %2 = alloca ptr, align 8
  store ptr %0, ptr %2, align 8
  %3 = load ptr, ptr %2, align 8
  %4 = getelementptr inbounds %class.Block, ptr %3, i32 0, i32 17
  %5 = load i32, ptr %4, align 4
  ret i32 %5
}

; Function Attrs: mustprogress nounwind uwtable
define linkonce_odr hidden noundef zeroext i1 @_ZNK5Block18has_loop_alignmentEv(ptr noundef nonnull align 8 dereferenceable(144) %0) #1 comdat align 2 {
  %2 = alloca ptr, align 8
  store ptr %0, ptr %2, align 8
  %3 = load ptr, ptr %2, align 8
  %4 = call noundef i32 @_ZNK5Block14loop_alignmentEv(ptr noundef nonnull align 8 dereferenceable(144) %3)
  %5 = icmp ugt i32 %4, 0
  ret i1 %5
}

; Function Attrs: mustprogress nounwind uwtable
define hidden noundef i32 @_ZNK5Block14code_alignmentEv(ptr noundef nonnull align 8 dereferenceable(144) %0) #1 align 2 {
  %2 = alloca i32, align 4
  %3 = alloca ptr, align 8
  store ptr %0, ptr %3, align 8
  %4 = load ptr, ptr %3, align 8
  %5 = getelementptr inbounds %class.Block, ptr %4, i32 0, i32 4
  %6 = load i32, ptr %5, align 4
  %7 = icmp eq i32 %6, 0
  br i1 %7, label %8, label %11

8:                                                ; preds = %1
  %9 = load i64, ptr @CodeEntryAlignment, align 8
  %10 = trunc i64 %9 to i32
  store i32 %10, ptr %2, align 4
  br label %24

11:                                               ; preds = %1
  %12 = getelementptr inbounds %class.Block, ptr %4, i32 0, i32 4
  %13 = load i32, ptr %12, align 4
  %14 = icmp eq i32 %13, 1
  br i1 %14, label %15, label %18

15:                                               ; preds = %11
  %16 = load i64, ptr @InteriorEntryAlignment, align 8
  %17 = trunc i64 %16 to i32
  store i32 %17, ptr %2, align 4
  br label %24

18:                                               ; preds = %11
  %19 = call noundef zeroext i1 @_ZNK5Block18has_loop_alignmentEv(ptr noundef nonnull align 8 dereferenceable(144) %4)
  br i1 %19, label %20, label %22

20:                                               ; preds = %18
  %21 = call noundef i32 @_ZNK5Block14loop_alignmentEv(ptr noundef nonnull align 8 dereferenceable(144) %4)
  store i32 %21, ptr %2, align 4
  br label %24

22:                                               ; preds = %18
  %23 = call noundef i32 @_ZN9relocInfo9addr_unitEv()
  store i32 %23, ptr %2, align 4
  br label %24

24:                                               ; preds = %22, %20, %15, %8
  %25 = load i32, ptr %2, align 4
  ret i32 %25
}