; Function Attrs: mustprogress nofree norecurse nosync nounwind willreturn memory(read, inaccessiblemem: none) uwtable
define hidden noundef i32 @_ZNK5Block14code_alignmentEv(ptr nocapture noundef nonnull readonly align 8 dereferenceable(144) %0) local_unnamed_addr #3 align 2 {
  %2 = getelementptr inbounds i8, ptr %0, i64 76
  %3 = load i32, ptr %2, align 4
  switch i32 %3, label %10 [
    i32 0, label %4
    i32 1, label %7
  ]

4:                                                ; preds = %1
  %5 = load i64, ptr @CodeEntryAlignment, align 8
  %6 = trunc i64 %5 to i32
  br label %13

7:                                                ; preds = %1
  %8 = load i64, ptr @InteriorEntryAlignment, align 8
  %9 = trunc i64 %8 to i32
  br label %13

10:                                               ; preds = %1
  %11 = getelementptr inbounds i8, ptr %0, i64 140
  %12 = load i32, ptr %11, align 4
  %spec.select = tail call i32 @llvm.umax.i32(i32 %12, i32 1)
  br label %13

13:                                               ; preds = %10, %7, %4
  %.0 = phi i32 [ %6, %4 ], [ %9, %7 ], [ %spec.select, %10 ]
  ret i32 %.0
}